target datalayout = "e-m:e-p270:32:32-p271:32:32-p272:64:64-i64:64-i128:128-f80:128-n8:16:32:64-S128"
target triple = "x86_64-pc-linux-gnu"

@stderr = external global ptr, align 8
@.str.16 = private unnamed_addr constant [26 x i8] c"%u: Odd-length %s input.\0A\00", align 1
@.str.17 = private unnamed_addr constant [21 x i8] c"%u: malloc failure.\0A\00", align 1
@.str.18 = private unnamed_addr constant [48 x i8] c"%u: invalid hex digit in %s around offset %zu.\0A\00", align 1

; Function Attrs: nounwind uwtable
define internal i32 @from_hex(ptr noundef %0, i8 noundef signext %1) #0 {
  %3 = alloca i32, align 4
  %4 = alloca ptr, align 8
  %5 = alloca i8, align 1
  store ptr %0, ptr %4, align 8, !tbaa !15
  store i8 %1, ptr %5, align 1, !tbaa !32
  %6 = load i8, ptr %5, align 1, !tbaa !32
  %7 = sext i8 %6 to i32
  %8 = icmp sge i32 %7, 48
  br i1 %8, label %9, label %19

9:                                                ; preds = %2
  %10 = load i8, ptr %5, align 1, !tbaa !32
  %11 = sext i8 %10 to i32
  %12 = icmp sle i32 %11, 57
  br i1 %12, label %13, label %19

13:                                               ; preds = %9
  %14 = load i8, ptr %5, align 1, !tbaa !32
  %15 = sext i8 %14 to i32
  %16 = sub nsw i32 %15, 48
  %17 = trunc i32 %16 to i8
  %18 = load ptr, ptr %4, align 8, !tbaa !15
  store i8 %17, ptr %18, align 1, !tbaa !32
  store i32 1, ptr %3, align 4
  br label %50

19:                                               ; preds = %9, %2
  %20 = load i8, ptr %5, align 1, !tbaa !32
  %21 = sext i8 %20 to i32
  %22 = icmp sge i32 %21, 97
  br i1 %22, label %23, label %34

23:                                               ; preds = %19
  %24 = load i8, ptr %5, align 1, !tbaa !32
  %25 = sext i8 %24 to i32
  %26 = icmp sle i32 %25, 102
  br i1 %26, label %27, label %34

27:                                               ; preds = %23
  %28 = load i8, ptr %5, align 1, !tbaa !32
  %29 = sext i8 %28 to i32
  %30 = sub nsw i32 %29, 97
  %31 = add nsw i32 %30, 10
  %32 = trunc i32 %31 to i8
  %33 = load ptr, ptr %4, align 8, !tbaa !15
  store i8 %32, ptr %33, align 1, !tbaa !32
  store i32 1, ptr %3, align 4
  br label %50

34:                                               ; preds = %23, %19
  %35 = load i8, ptr %5, align 1, !tbaa !32
  %36 = sext i8 %35 to i32
  %37 = icmp sge i32 %36, 65
  br i1 %37, label %38, label %49

38:                                               ; preds = %34
  %39 = load i8, ptr %5, align 1, !tbaa !32
  %40 = sext i8 %39 to i32
  %41 = icmp sle i32 %40, 70
  br i1 %41, label %42, label %49

42:                                               ; preds = %38
  %43 = load i8, ptr %5, align 1, !tbaa !32
  %44 = sext i8 %43 to i32
  %45 = sub nsw i32 %44, 65
  %46 = add nsw i32 %45, 10
  %47 = trunc i32 %46 to i8
  %48 = load ptr, ptr %4, align 8, !tbaa !15
  store i8 %47, ptr %48, align 1, !tbaa !32
  store i32 1, ptr %3, align 4
  br label %50

49:                                               ; preds = %38, %34
  store i32 0, ptr %3, align 4
  br label %50

50:                                               ; preds = %49, %42, %27, %13
  %51 = load i32, ptr %3, align 4
  ret i32 %51
}

; Function Attrs: nounwind uwtable
define internal i32 @decode_hex(ptr noundef %0, ptr noundef %1, ptr noundef %2, i32 noundef %3, ptr noundef %4) #0 {
  %6 = alloca i32, align 4
  %7 = alloca ptr, align 8
  %8 = alloca ptr, align 8
  %9 = alloca ptr, align 8
  %10 = alloca i32, align 4
  %11 = alloca ptr, align 8
  %12 = alloca ptr, align 8
  %13 = alloca i64, align 8
  %14 = alloca i32, align 4
  %15 = alloca i64, align 8
  %16 = alloca i8, align 1
  %17 = alloca i8, align 1
  store ptr %0, ptr %7, align 8, !tbaa !28
  store ptr %1, ptr %8, align 8, !tbaa !30
  store ptr %2, ptr %9, align 8, !tbaa !15
  store i32 %3, ptr %10, align 4, !tbaa !6
  store ptr %4, ptr %11, align 8, !tbaa !15
  call void @llvm.lifetime.start.p0(i64 8, ptr %12) #7
  store ptr null, ptr %12, align 8, !tbaa !15
  call void @llvm.lifetime.start.p0(i64 8, ptr %13) #7
  %18 = load ptr, ptr %9, align 8, !tbaa !15
  %19 = icmp eq ptr %18, null
  br i1 %19, label %20, label %23

20:                                               ; preds = %5
  %21 = load ptr, ptr %7, align 8, !tbaa !28
  store ptr null, ptr %21, align 8, !tbaa !15
  %22 = load ptr, ptr %8, align 8, !tbaa !30
  store i64 0, ptr %22, align 8, !tbaa !24
  store i32 1, ptr %6, align 4
  store i32 1, ptr %14, align 4
  br label %97

23:                                               ; preds = %5
  call void @llvm.lifetime.start.p0(i64 8, ptr %15) #7
  %24 = load ptr, ptr %9, align 8, !tbaa !15
  %25 = call i64 @strlen(ptr noundef %24) #9
  store i64 %25, ptr %15, align 8, !tbaa !24
  %26 = load i64, ptr %15, align 8, !tbaa !24
  %27 = and i64 %26, 1
  %28 = icmp ne i64 %27, 0
  br i1 %28, label %29, label %34

29:                                               ; preds = %23
  %30 = load ptr, ptr @stderr, align 8, !tbaa !26
  %31 = load i32, ptr %10, align 4, !tbaa !6
  %32 = load ptr, ptr %11, align 8, !tbaa !15
  %33 = call i32 (ptr, ptr, ...) @fprintf(ptr noundef %30, ptr noundef @.str.16, i32 noundef %31, ptr noundef %32) #7
  br label %94

34:                                               ; preds = %23
  %35 = load i64, ptr %15, align 8, !tbaa !24
  %36 = udiv i64 %35, 2
  %37 = call noalias ptr @malloc(i64 noundef %36) #8
  store ptr %37, ptr %12, align 8, !tbaa !15
  %38 = load ptr, ptr %12, align 8, !tbaa !15
  %39 = icmp eq ptr %38, null
  br i1 %39, label %40, label %44

40:                                               ; preds = %34
  %41 = load ptr, ptr @stderr, align 8, !tbaa !26
  %42 = load i32, ptr %10, align 4, !tbaa !6
  %43 = call i32 (ptr, ptr, ...) @fprintf(ptr noundef %41, ptr noundef @.str.17, i32 noundef %42) #7
  br label %94

44:                                               ; preds = %34
  store i64 0, ptr %13, align 8, !tbaa !24
  br label %45

45:                                               ; preds = %85, %44
  %46 = load i64, ptr %13, align 8, !tbaa !24
  %47 = load i64, ptr %15, align 8, !tbaa !24
  %48 = icmp ult i64 %46, %47
  br i1 %48, label %49, label %88

49:                                               ; preds = %45
  call void @llvm.lifetime.start.p0(i64 1, ptr %16) #7
  call void @llvm.lifetime.start.p0(i64 1, ptr %17) #7
  %50 = load ptr, ptr %9, align 8, !tbaa !15
  %51 = load i64, ptr %13, align 8, !tbaa !24
  %52 = getelementptr inbounds nuw i8, ptr %50, i64 %51
  %53 = load i8, ptr %52, align 1, !tbaa !32
  %54 = call i32 @from_hex(ptr noundef %16, i8 noundef signext %53)
  %55 = icmp ne i32 %54, 0
  br i1 %55, label %56, label %64

56:                                               ; preds = %49
  %57 = load ptr, ptr %9, align 8, !tbaa !15
  %58 = load i64, ptr %13, align 8, !tbaa !24
  %59 = add i64 %58, 1
  %60 = getelementptr inbounds nuw i8, ptr %57, i64 %59
  %61 = load i8, ptr %60, align 1, !tbaa !32
  %62 = call i32 @from_hex(ptr noundef %17, i8 noundef signext %61)
  %63 = icmp ne i32 %62, 0
  br i1 %63, label %70, label %64

64:                                               ; preds = %56, %49
  %65 = load ptr, ptr @stderr, align 8, !tbaa !26
  %66 = load i32, ptr %10, align 4, !tbaa !6
  %67 = load ptr, ptr %11, align 8, !tbaa !15
  %68 = load i64, ptr %13, align 8, !tbaa !24
  %69 = call i32 (ptr, ptr, ...) @fprintf(ptr noundef %65, ptr noundef @.str.18, i32 noundef %66, ptr noundef %67, i64 noundef %68) #7
  store i32 2, ptr %14, align 4
  br label %82

70:                                               ; preds = %56
  %71 = load i8, ptr %16, align 1, !tbaa !32
  %72 = zext i8 %71 to i32
  %73 = shl i32 %72, 4
  %74 = load i8, ptr %17, align 1, !tbaa !32
  %75 = zext i8 %74 to i32
  %76 = or i32 %73, %75
  %77 = trunc i32 %76 to i8
  %78 = load ptr, ptr %12, align 8, !tbaa !15
  %79 = load i64, ptr %13, align 8, !tbaa !24
  %80 = udiv i64 %79, 2
  %81 = getelementptr inbounds nuw i8, ptr %78, i64 %80
  store i8 %77, ptr %81, align 1, !tbaa !32
  store i32 0, ptr %14, align 4
  br label %82

82:                                               ; preds = %64, %70
  call void @llvm.lifetime.end.p0(i64 1, ptr %17) #7
  call void @llvm.lifetime.end.p0(i64 1, ptr %16) #7
  %83 = load i32, ptr %14, align 4
  switch i32 %83, label %96 [
    i32 0, label %84
    i32 2, label %94
  ]

84:                                               ; preds = %82
  br label %85

85:                                               ; preds = %84
  %86 = load i64, ptr %13, align 8, !tbaa !24
  %87 = add i64 %86, 2
  store i64 %87, ptr %13, align 8, !tbaa !24
  br label %45, !llvm.loop !33

88:                                               ; preds = %45
  %89 = load ptr, ptr %12, align 8, !tbaa !15
  %90 = load ptr, ptr %7, align 8, !tbaa !28
  store ptr %89, ptr %90, align 8, !tbaa !15
  %91 = load i64, ptr %15, align 8, !tbaa !24
  %92 = udiv i64 %91, 2
  %93 = load ptr, ptr %8, align 8, !tbaa !30
  store i64 %92, ptr %93, align 8, !tbaa !24
  store i32 1, ptr %6, align 4
  store i32 1, ptr %14, align 4
  br label %96

94:                                               ; preds = %82, %40, %29
  %95 = load ptr, ptr %12, align 8, !tbaa !15
  call void @free(ptr noundef %95) #7
  store i32 0, ptr %6, align 4
  store i32 1, ptr %14, align 4
  br label %96

96:                                               ; preds = %94, %88, %82
  call void @llvm.lifetime.end.p0(i64 8, ptr %15) #7
  br label %97

97:                                               ; preds = %96, %20
  call void @llvm.lifetime.end.p0(i64 8, ptr %13) #7
  call void @llvm.lifetime.end.p0(i64 8, ptr %12) #7
  %98 = load i32, ptr %6, align 4
  ret i32 %98
}