; Function Attrs: nounwind uwtable
define internal fastcc range(i32 0, 2) i32 @decode_hex(ptr noundef nonnull writeonly captures(none) %0, ptr noundef nonnull writeonly captures(none) %1, ptr noundef readonly captures(address_is_null) %2, i32 noundef %3, ptr noundef %4) unnamed_addr #0 {
  %6 = icmp eq ptr %2, null
  br i1 %6, label %7, label %8

7:                                                ; preds = %5
  store ptr null, ptr %0, align 8, !tbaa !6
  store i64 0, ptr %1, align 8, !tbaa !18
  br label %56

8:                                                ; preds = %5
  %9 = tail call i64 @strlen(ptr noundef nonnull dereferenceable(1) %2) #13
  %10 = and i64 %9, 1
  %.not = icmp eq i64 %10, 0
  br i1 %.not, label %14, label %11

11:                                               ; preds = %8
  %12 = load ptr, ptr @stderr, align 8, !tbaa !20
  %13 = tail call i32 (ptr, ptr, ...) @fprintf(ptr noundef %12, ptr noundef nonnull @.str.16, i32 noundef %3, ptr noundef %4) #11
  br label %55

14:                                               ; preds = %8
  %15 = lshr exact i64 %9, 1
  %16 = tail call noalias ptr @malloc(i64 noundef %15) #12
  %17 = icmp eq ptr %16, null
  br i1 %17, label %18, label %.preheader

.preheader:                                       ; preds = %14
  %.not66 = icmp eq i64 %9, 0
  br i1 %.not66, label %._crit_edge, label %.lr.ph

18:                                               ; preds = %14
  %19 = load ptr, ptr @stderr, align 8, !tbaa !20
  %20 = tail call i32 (ptr, ptr, ...) @fprintf(ptr noundef %19, ptr noundef nonnull @.str.17, i32 noundef %3) #11
  br label %55

.lr.ph:                                           ; preds = %.preheader, %48
  %.02965 = phi i64 [ %53, %48 ], [ 0, %.preheader ]
  %21 = getelementptr inbounds nuw i8, ptr %2, i64 %.02965
  %22 = load i8, ptr %21, align 1, !tbaa !24
  %23 = add i8 %22, -48
  %or.cond.i = icmp ult i8 %23, 10
  br i1 %or.cond.i, label %32, label %24

24:                                               ; preds = %.lr.ph
  %25 = add i8 %22, -97
  %or.cond5.i = icmp ult i8 %25, 6
  br i1 %or.cond5.i, label %26, label %28

26:                                               ; preds = %24
  %27 = add nsw i8 %22, -87
  br label %32

28:                                               ; preds = %24
  %29 = add i8 %22, -65
  %or.cond8.i = icmp ult i8 %29, 6
  br i1 %or.cond8.i, label %30, label %45

30:                                               ; preds = %28
  %31 = add nsw i8 %22, -55
  br label %32

32:                                               ; preds = %30, %26, %.lr.ph
  %.147.ph = phi i8 [ %23, %.lr.ph ], [ %27, %26 ], [ %31, %30 ]
  %33 = or disjoint i64 %.02965, 1
  %34 = getelementptr inbounds nuw i8, ptr %2, i64 %33
  %35 = load i8, ptr %34, align 1, !tbaa !24
  %36 = add i8 %35, -48
  %or.cond.i37 = icmp ult i8 %36, 10
  br i1 %or.cond.i37, label %48, label %37

37:                                               ; preds = %32
  %38 = add i8 %35, -97
  %or.cond5.i38 = icmp ult i8 %38, 6
  br i1 %or.cond5.i38, label %39, label %41

39:                                               ; preds = %37
  %40 = add nsw i8 %35, -87
  br label %48

41:                                               ; preds = %37
  %42 = add i8 %35, -65
  %or.cond8.i39 = icmp ult i8 %42, 6
  br i1 %or.cond8.i39, label %43, label %45

43:                                               ; preds = %41
  %44 = add nsw i8 %35, -55
  br label %48

45:                                               ; preds = %28, %41
  %46 = load ptr, ptr @stderr, align 8, !tbaa !20
  %47 = tail call i32 (ptr, ptr, ...) @fprintf(ptr noundef %46, ptr noundef nonnull @.str.18, i32 noundef %3, ptr noundef %4, i64 noundef %.02965) #11
  br label %55

48:                                               ; preds = %32, %39, %43
  %.3.ph = phi i8 [ %36, %32 ], [ %40, %39 ], [ %44, %43 ]
  %49 = shl nuw i8 %.147.ph, 4
  %50 = or i8 %.3.ph, %49
  %51 = lshr exact i64 %.02965, 1
  %52 = getelementptr inbounds nuw i8, ptr %16, i64 %51
  store i8 %50, ptr %52, align 1, !tbaa !24
  %53 = add i64 %.02965, 2
  %54 = icmp ult i64 %53, %9
  br i1 %54, label %.lr.ph, label %._crit_edge, !llvm.loop !25

._crit_edge:                                      ; preds = %48, %.preheader
  store ptr %16, ptr %0, align 8, !tbaa !6
  store i64 %15, ptr %1, align 8, !tbaa !18
  br label %56

55:                                               ; preds = %45, %18, %11
  %.030 = phi ptr [ null, %11 ], [ null, %18 ], [ %16, %45 ]
  tail call void @free(ptr noundef %.030) #10
  br label %56

56:                                               ; preds = %._crit_edge, %55, %7
  %.0 = phi i32 [ 1, %7 ], [ 0, %55 ], [ 1, %._crit_edge ]
  ret i32 %.0
}